target datalayout = "e-m:e-p270:32:32-p271:32:32-p272:64:64-i64:64-i128:128-f80:128-n8:16:32:64-S128"
target triple = "x86_64-pc-linux-gnu"

; Function Attrs: nounwind sspstrong uwtable
define internal i32 @code_to_mbclen(i32 noundef %0, ptr noundef %1) #0 {
  %3 = alloca i32, align 4
  %4 = alloca i32, align 4
  %5 = alloca ptr, align 8
  %6 = alloca i32, align 4
  %7 = alloca i32, align 4
  store i32 %0, ptr %4, align 4, !tbaa !17
  store ptr %1, ptr %5, align 8, !tbaa !14
  %8 = load i32, ptr %4, align 4, !tbaa !17
  %9 = icmp ult i32 %8, 256
  br i1 %9, label %10, label %18

10:                                               ; preds = %2
  %11 = load i32, ptr %4, align 4, !tbaa !17
  %12 = sext i32 %11 to i64
  %13 = getelementptr inbounds [256 x i32], ptr @EncLen_SJIS, i64 0, i64 %12
  %14 = load i32, ptr %13, align 4, !tbaa !17
  %15 = icmp eq i32 %14, 1
  br i1 %15, label %16, label %17

16:                                               ; preds = %10
  store i32 1, ptr %3, align 4
  br label %33

17:                                               ; preds = %10
  store i32 -400, ptr %3, align 4
  br label %33

18:                                               ; preds = %2
  %19 = load i32, ptr %4, align 4, !tbaa !17
  %20 = icmp ule i32 %19, 65535
  br i1 %20, label %21, label %32

21:                                               ; preds = %18
  call void @llvm.lifetime.start.p0(i64 4, ptr %6) #4
  %22 = load i32, ptr %4, align 4, !tbaa !17
  %23 = and i32 %22, 255
  store i32 %23, ptr %6, align 4, !tbaa !17
  %24 = load i32, ptr %6, align 4, !tbaa !17
  %25 = sext i32 %24 to i64
  %26 = getelementptr inbounds [256 x i8], ptr @SJIS_CAN_BE_TRAIL_TABLE, i64 0, i64 %25
  %27 = load i8, ptr %26, align 1, !tbaa !16
  %28 = icmp ne i8 %27, 0
  br i1 %28, label %30, label %29

29:                                               ; preds = %21
  store i32 -400, ptr %3, align 4
  store i32 1, ptr %7, align 4
  br label %31

30:                                               ; preds = %21
  store i32 2, ptr %3, align 4
  store i32 1, ptr %7, align 4
  br label %31

31:                                               ; preds = %30, %29
  call void @llvm.lifetime.end.p0(i64 4, ptr %6) #4
  br label %33

32:                                               ; preds = %18
  store i32 -401, ptr %3, align 4
  br label %33

33:                                               ; preds = %32, %31, %17, %16
  %34 = load i32, ptr %3, align 4
  ret i32 %34
}