; Function Attrs: mustprogress nofree norecurse nosync nounwind sspstrong willreturn memory(none) uwtable
define internal range(i32 -401, 3) i32 @code_to_mbclen(i32 noundef %0, ptr readnone captures(none) %1) #4 {
  %3 = icmp ult i32 %0, 256
  br i1 %3, label %4, label %9

4:                                                ; preds = %2
  %5 = zext nneg i32 %0 to i64
  %6 = getelementptr inbounds nuw [256 x i32], ptr @EncLen_SJIS, i64 0, i64 %5
  %7 = load i32, ptr %6, align 4, !tbaa !9
  %8 = icmp eq i32 %7, 1
  %. = select i1 %8, i32 1, i32 -400
  br label %16

9:                                                ; preds = %2
  %10 = icmp ult i32 %0, 65536
  br i1 %10, label %11, label %16

11:                                               ; preds = %9
  %12 = and i32 %0, 255
  %13 = zext nneg i32 %12 to i64
  %14 = getelementptr inbounds nuw [256 x i8], ptr @SJIS_CAN_BE_TRAIL_TABLE, i64 0, i64 %13
  %15 = load i8, ptr %14, align 1, !tbaa !6
  %.not = icmp eq i8 %15, 0
  %.8 = select i1 %.not, i32 -400, i32 2
  br label %16

16:                                               ; preds = %9, %4, %11
  %.0 = phi i32 [ %.8, %11 ], [ %., %4 ], [ -401, %9 ]
  ret i32 %.0
}